target datalayout = "e-m:e-p270:32:32-p271:32:32-p272:64:64-i64:64-i128:128-f80:128-n8:16:32:64-S128"
target triple = "x86_64-pc-linux-gnu"

%struct.FormData_pg_attribute = type { i32, %struct.nameData, i32, i16, i16, i32, i16, i8, i8, i8, i8, i8, i8, i8, i8, i8, i8, i8, i16, i32 }
%struct.nameData = type { [64 x i8] }

; Function Attrs: nounwind uwtable
define dso_local zeroext i1 @logicalrep_should_publish_column(ptr noundef %0, ptr noundef %1, i32 noundef %2) #0 {
  %4 = alloca i1, align 1
  %5 = alloca ptr, align 8
  %6 = alloca ptr, align 8
  %7 = alloca i32, align 4
  store ptr %0, ptr %5, align 8
  store ptr %1, ptr %6, align 8
  store i32 %2, ptr %7, align 4
  %8 = load ptr, ptr %5, align 8
  %9 = getelementptr inbounds nuw %struct.FormData_pg_attribute, ptr %8, i32 0, i32 16
  %10 = load i8, ptr %9, align 1, !range !4, !noundef !5
  %11 = trunc i8 %10 to i1
  br i1 %11, label %12, label %13

12:                                               ; preds = %3
  store i1 false, ptr %4, align 1
  br label %39

13:                                               ; preds = %3
  %14 = load ptr, ptr %6, align 8
  %15 = icmp ne ptr %14, null
  br i1 %15, label %16, label %23

16:                                               ; preds = %13
  %17 = load ptr, ptr %5, align 8
  %18 = getelementptr inbounds nuw %struct.FormData_pg_attribute, ptr %17, i32 0, i32 4
  %19 = load i16, ptr %18, align 2
  %20 = sext i16 %19 to i32
  %21 = load ptr, ptr %6, align 8
  %22 = call zeroext i1 @bms_is_member(i32 noundef %20, ptr noundef %21)
  store i1 %22, ptr %4, align 1
  br label %39

23:                                               ; preds = %13
  %24 = load ptr, ptr %5, align 8
  %25 = getelementptr inbounds nuw %struct.FormData_pg_attribute, ptr %24, i32 0, i32 15
  %26 = load i8, ptr %25, align 2
  %27 = icmp ne i8 %26, 0
  br i1 %27, label %29, label %28

28:                                               ; preds = %23
  store i1 true, ptr %4, align 1
  br label %39

29:                                               ; preds = %23
  %30 = load ptr, ptr %5, align 8
  %31 = getelementptr inbounds nuw %struct.FormData_pg_attribute, ptr %30, i32 0, i32 15
  %32 = load i8, ptr %31, align 2
  %33 = sext i8 %32 to i32
  %34 = icmp eq i32 %33, 115
  br i1 %34, label %35, label %38

35:                                               ; preds = %29
  %36 = load i32, ptr %7, align 4
  %37 = icmp eq i32 %36, 115
  store i1 %37, ptr %4, align 1
  br label %39

38:                                               ; preds = %29
  store i1 false, ptr %4, align 1
  br label %39

39:                                               ; preds = %38, %35, %28, %16, %12
  %40 = load i1, ptr %4, align 1
  ret i1 %40
}