; Function Attrs: nounwind uwtable
define dso_local zeroext i1 @logicalrep_should_publish_column(ptr noundef readonly captures(none) %0, ptr noundef %1, i32 noundef %2) local_unnamed_addr #0 {
  %4 = getelementptr inbounds nuw i8, ptr %0, i64 91
  %5 = load i8, ptr %4, align 1, !range !121, !noundef !122
  %6 = trunc nuw i8 %5 to i1
  br i1 %6, label %19, label %7

7:                                                ; preds = %3
  %.not = icmp eq ptr %1, null
  br i1 %.not, label %13, label %8

8:                                                ; preds = %7
  %9 = getelementptr inbounds nuw i8, ptr %0, i64 74
  %10 = load i16, ptr %9, align 2
  %11 = sext i16 %10 to i32
  %12 = tail call zeroext i1 @bms_is_member(i32 noundef %11, ptr noundef nonnull %1) #8
  br label %19

13:                                               ; preds = %7
  %14 = getelementptr inbounds nuw i8, ptr %0, i64 90
  %15 = load i8, ptr %14, align 2
  switch i8 %15, label %18 [
    i8 0, label %19
    i8 115, label %16
  ]

16:                                               ; preds = %13
  %17 = icmp eq i32 %2, 115
  br label %19

18:                                               ; preds = %13
  br label %19

19:                                               ; preds = %13, %3, %18, %16, %8
  %.0 = phi i1 [ %12, %8 ], [ %17, %16 ], [ false, %18 ], [ false, %3 ], [ true, %13 ]
  ret i1 %.0
}